target datalayout = "e-m:e-p270:32:32-p271:32:32-p272:64:64-i64:64-i128:128-f80:128-n8:16:32:64-S128"
target triple = "x86_64-pc-linux-gnu"

%struct.AVCodecDescriptor = type { i32, i32, ptr, ptr, i32, ptr, ptr }
%struct.AVCodec = type { ptr, ptr, i32, i32, i32, i8, ptr, ptr, ptr, ptr, ptr, ptr, ptr, ptr }

@.str.2 = private unnamed_addr constant [1 x i8] zeroinitializer, align 1
@.str.11 = private unnamed_addr constant [12 x i8] c"_deprecated\00", align 1
@.str.12 = private unnamed_addr constant [14 x i8] c" %c%c%c%c%c%c\00", align 1
@.str.13 = private unnamed_addr constant [10 x i8] c" %-20s %s\00", align 1
@.str.14 = private unnamed_addr constant [2 x i8] c"\0A\00", align 1

; Function Attrs: nounwind uwtable
define internal ptr @next_codec_for_id(i32 noundef %0, ptr noundef %1, i32 noundef %2) #0 {
  %4 = alloca ptr, align 8
  %5 = alloca i32, align 4
  %6 = alloca ptr, align 8
  %7 = alloca i32, align 4
  %8 = alloca ptr, align 8
  %9 = alloca i32, align 4
  store i32 %0, ptr %5, align 4, !tbaa !10
  store ptr %1, ptr %6, align 8, !tbaa !89
  store i32 %2, ptr %7, align 4, !tbaa !10
  call void @llvm.lifetime.start.p0(i64 8, ptr %8) #11
  br label %10

10:                                               ; preds = %33, %3
  %11 = load ptr, ptr %6, align 8, !tbaa !89
  %12 = call ptr @av_codec_iterate(ptr noundef %11)
  store ptr %12, ptr %8, align 8, !tbaa !22
  %13 = icmp ne ptr %12, null
  br i1 %13, label %14, label %34

14:                                               ; preds = %10
  %15 = load ptr, ptr %8, align 8, !tbaa !22
  %16 = getelementptr inbounds nuw %struct.AVCodec, ptr %15, i32 0, i32 3
  %17 = load i32, ptr %16, align 4, !tbaa !90
  %18 = load i32, ptr %5, align 4, !tbaa !10
  %19 = icmp eq i32 %17, %18
  br i1 %19, label %20, label %33

20:                                               ; preds = %14
  %21 = load i32, ptr %7, align 4, !tbaa !10
  %22 = icmp ne i32 %21, 0
  br i1 %22, label %23, label %27

23:                                               ; preds = %20
  %24 = load ptr, ptr %8, align 8, !tbaa !22
  %25 = call i32 @av_codec_is_encoder(ptr noundef %24)
  %26 = icmp ne i32 %25, 0
  br i1 %26, label %31, label %33

27:                                               ; preds = %20
  %28 = load ptr, ptr %8, align 8, !tbaa !22
  %29 = call i32 @av_codec_is_decoder(ptr noundef %28)
  %30 = icmp ne i32 %29, 0
  br i1 %30, label %31, label %33

31:                                               ; preds = %27, %23
  %32 = load ptr, ptr %8, align 8, !tbaa !22
  store ptr %32, ptr %4, align 8
  store i32 1, ptr %9, align 4
  br label %35

33:                                               ; preds = %27, %23, %14
  br label %10, !llvm.loop !91

34:                                               ; preds = %10
  store ptr null, ptr %4, align 8
  store i32 1, ptr %9, align 4
  br label %35

35:                                               ; preds = %34, %31
  call void @llvm.lifetime.end.p0(i64 8, ptr %8) #11
  %36 = load ptr, ptr %4, align 8
  ret ptr %36
}

; Function Attrs: nounwind uwtable
define internal signext i8 @get_media_type_char(i32 noundef %0) #0 {
  %2 = alloca i8, align 1
  %3 = alloca i32, align 4
  store i32 %0, ptr %3, align 4, !tbaa !10
  %4 = load i32, ptr %3, align 4, !tbaa !10
  switch i32 %4, label %10 [
    i32 0, label %5
    i32 1, label %6
    i32 2, label %7
    i32 3, label %8
    i32 4, label %9
  ]

5:                                                ; preds = %1
  store i8 86, ptr %2, align 1
  br label %11

6:                                                ; preds = %1
  store i8 65, ptr %2, align 1
  br label %11

7:                                                ; preds = %1
  store i8 68, ptr %2, align 1
  br label %11

8:                                                ; preds = %1
  store i8 83, ptr %2, align 1
  br label %11

9:                                                ; preds = %1
  store i8 84, ptr %2, align 1
  br label %11

10:                                               ; preds = %1
  store i8 63, ptr %2, align 1
  br label %11

11:                                               ; preds = %10, %9, %8, %7, %6, %5
  %12 = load i8, ptr %2, align 1
  ret i8 %12
}

; Function Attrs: nounwind uwtable
define i32 @show_codecs(ptr noundef %0, ptr noundef %1, ptr noundef %2) #0 {
  %4 = alloca i32, align 4
  %5 = alloca ptr, align 8
  %6 = alloca ptr, align 8
  %7 = alloca ptr, align 8
  %8 = alloca ptr, align 8
  %9 = alloca i32, align 4
  %10 = alloca i32, align 4
  %11 = alloca i32, align 4
  %12 = alloca ptr, align 8
  %13 = alloca ptr, align 8
  %14 = alloca ptr, align 8
  store ptr %0, ptr %5, align 8, !tbaa !4
  store ptr %1, ptr %6, align 8, !tbaa !8
  store ptr %2, ptr %7, align 8, !tbaa !8
  call void @llvm.lifetime.start.p0(i64 8, ptr %8) #11
  call void @llvm.lifetime.start.p0(i64 4, ptr %9) #11
  call void @llvm.lifetime.start.p0(i64 4, ptr %10) #11
  %15 = call i32 @get_codecs_sorted(ptr noundef %8)
  store i32 %15, ptr %10, align 4, !tbaa !10
  %16 = load i32, ptr %10, align 4, !tbaa !10
  %17 = icmp slt i32 %16, 0
  br i1 %17, label %18, label %20

18:                                               ; preds = %3
  %19 = load i32, ptr %10, align 4, !tbaa !10
  store i32 %19, ptr %4, align 4
  store i32 1, ptr %11, align 4
  br label %141

20:                                               ; preds = %3
  %21 = call i32 (ptr, ...) @printf(ptr noundef @.str.10)
  store i32 0, ptr %9, align 4, !tbaa !10
  br label %22

22:                                               ; preds = %136, %20
  %23 = load i32, ptr %9, align 4, !tbaa !10
  %24 = load i32, ptr %10, align 4, !tbaa !10
  %25 = icmp ult i32 %23, %24
  br i1 %25, label %26, label %139

26:                                               ; preds = %22
  call void @llvm.lifetime.start.p0(i64 8, ptr %12) #11
  %27 = load ptr, ptr %8, align 8, !tbaa !71
  %28 = load i32, ptr %9, align 4, !tbaa !10
  %29 = zext i32 %28 to i64
  %30 = getelementptr inbounds nuw ptr, ptr %27, i64 %29
  %31 = load ptr, ptr %30, align 8, !tbaa !24
  store ptr %31, ptr %12, align 8, !tbaa !24
  call void @llvm.lifetime.start.p0(i64 8, ptr %13) #11
  call void @llvm.lifetime.start.p0(i64 8, ptr %14) #11
  store ptr null, ptr %14, align 8, !tbaa !4
  %32 = load ptr, ptr %12, align 8, !tbaa !24
  %33 = getelementptr inbounds nuw %struct.AVCodecDescriptor, ptr %32, i32 0, i32 2
  %34 = load ptr, ptr %33, align 8, !tbaa !47
  %35 = call ptr @strstr(ptr noundef %34, ptr noundef @.str.11) #12
  %36 = icmp ne ptr %35, null
  br i1 %36, label %37, label %38

37:                                               ; preds = %26
  store i32 4, ptr %11, align 4
  br label %133

38:                                               ; preds = %26
  %39 = load ptr, ptr %12, align 8, !tbaa !24
  %40 = getelementptr inbounds nuw %struct.AVCodecDescriptor, ptr %39, i32 0, i32 0
  %41 = load i32, ptr %40, align 8, !tbaa !26
  %42 = call ptr @avcodec_find_decoder(i32 noundef %41)
  %43 = icmp ne ptr %42, null
  %44 = select i1 %43, i32 68, i32 46
  %45 = load ptr, ptr %12, align 8, !tbaa !24
  %46 = getelementptr inbounds nuw %struct.AVCodecDescriptor, ptr %45, i32 0, i32 0
  %47 = load i32, ptr %46, align 8, !tbaa !26
  %48 = call ptr @avcodec_find_encoder(i32 noundef %47)
  %49 = icmp ne ptr %48, null
  %50 = select i1 %49, i32 69, i32 46
  %51 = load ptr, ptr %12, align 8, !tbaa !24
  %52 = getelementptr inbounds nuw %struct.AVCodecDescriptor, ptr %51, i32 0, i32 1
  %53 = load i32, ptr %52, align 4, !tbaa !73
  %54 = call signext i8 @get_media_type_char(i32 noundef %53)
  %55 = sext i8 %54 to i32
  %56 = load ptr, ptr %12, align 8, !tbaa !24
  %57 = getelementptr inbounds nuw %struct.AVCodecDescriptor, ptr %56, i32 0, i32 4
  %58 = load i32, ptr %57, align 8, !tbaa !74
  %59 = and i32 %58, 1
  %60 = icmp ne i32 %59, 0
  %61 = select i1 %60, i32 73, i32 46
  %62 = load ptr, ptr %12, align 8, !tbaa !24
  %63 = getelementptr inbounds nuw %struct.AVCodecDescriptor, ptr %62, i32 0, i32 4
  %64 = load i32, ptr %63, align 8, !tbaa !74
  %65 = and i32 %64, 2
  %66 = icmp ne i32 %65, 0
  %67 = select i1 %66, i32 76, i32 46
  %68 = load ptr, ptr %12, align 8, !tbaa !24
  %69 = getelementptr inbounds nuw %struct.AVCodecDescriptor, ptr %68, i32 0, i32 4
  %70 = load i32, ptr %69, align 8, !tbaa !74
  %71 = and i32 %70, 4
  %72 = icmp ne i32 %71, 0
  %73 = select i1 %72, i32 83, i32 46
  %74 = call i32 (ptr, ...) @printf(ptr noundef @.str.12, i32 noundef %44, i32 noundef %50, i32 noundef %55, i32 noundef %61, i32 noundef %67, i32 noundef %73)
  %75 = load ptr, ptr %12, align 8, !tbaa !24
  %76 = getelementptr inbounds nuw %struct.AVCodecDescriptor, ptr %75, i32 0, i32 2
  %77 = load ptr, ptr %76, align 8, !tbaa !47
  %78 = load ptr, ptr %12, align 8, !tbaa !24
  %79 = getelementptr inbounds nuw %struct.AVCodecDescriptor, ptr %78, i32 0, i32 3
  %80 = load ptr, ptr %79, align 8, !tbaa !75
  %81 = icmp ne ptr %80, null
  br i1 %81, label %82, label %86

82:                                               ; preds = %38
  %83 = load ptr, ptr %12, align 8, !tbaa !24
  %84 = getelementptr inbounds nuw %struct.AVCodecDescriptor, ptr %83, i32 0, i32 3
  %85 = load ptr, ptr %84, align 8, !tbaa !75
  br label %87

86:                                               ; preds = %38
  br label %87

87:                                               ; preds = %86, %82
  %88 = phi ptr [ %85, %82 ], [ @.str.2, %86 ]
  %89 = call i32 (ptr, ...) @printf(ptr noundef @.str.13, ptr noundef %77, ptr noundef %88)
  br label %90

90:                                               ; preds = %109, %87
  %91 = load ptr, ptr %12, align 8, !tbaa !24
  %92 = getelementptr inbounds nuw %struct.AVCodecDescriptor, ptr %91, i32 0, i32 0
  %93 = load i32, ptr %92, align 8, !tbaa !26
  %94 = call ptr @next_codec_for_id(i32 noundef %93, ptr noundef %14, i32 noundef 0)
  store ptr %94, ptr %13, align 8, !tbaa !22
  %95 = icmp ne ptr %94, null
  br i1 %95, label %96, label %110

96:                                               ; preds = %90
  %97 = load ptr, ptr %13, align 8, !tbaa !22
  %98 = getelementptr inbounds nuw %struct.AVCodec, ptr %97, i32 0, i32 0
  %99 = load ptr, ptr %98, align 8, !tbaa !76
  %100 = load ptr, ptr %12, align 8, !tbaa !24
  %101 = getelementptr inbounds nuw %struct.AVCodecDescriptor, ptr %100, i32 0, i32 2
  %102 = load ptr, ptr %101, align 8, !tbaa !47
  %103 = call i32 @strcmp(ptr noundef %99, ptr noundef %102) #12
  %104 = icmp ne i32 %103, 0
  br i1 %104, label %105, label %109

105:                                              ; preds = %96
  %106 = load ptr, ptr %12, align 8, !tbaa !24
  %107 = getelementptr inbounds nuw %struct.AVCodecDescriptor, ptr %106, i32 0, i32 0
  %108 = load i32, ptr %107, align 8, !tbaa !26
  call void @print_codecs_for_id(i32 noundef %108, i32 noundef 0)
  br label %110

109:                                              ; preds = %96
  br label %90, !llvm.loop !81

110:                                              ; preds = %105, %90
  store ptr null, ptr %14, align 8, !tbaa !4
  br label %111

111:                                              ; preds = %130, %110
  %112 = load ptr, ptr %12, align 8, !tbaa !24
  %113 = getelementptr inbounds nuw %struct.AVCodecDescriptor, ptr %112, i32 0, i32 0
  %114 = load i32, ptr %113, align 8, !tbaa !26
  %115 = call ptr @next_codec_for_id(i32 noundef %114, ptr noundef %14, i32 noundef 1)
  store ptr %115, ptr %13, align 8, !tbaa !22
  %116 = icmp ne ptr %115, null
  br i1 %116, label %117, label %131

117:                                              ; preds = %111
  %118 = load ptr, ptr %13, align 8, !tbaa !22
  %119 = getelementptr inbounds nuw %struct.AVCodec, ptr %118, i32 0, i32 0
  %120 = load ptr, ptr %119, align 8, !tbaa !76
  %121 = load ptr, ptr %12, align 8, !tbaa !24
  %122 = getelementptr inbounds nuw %struct.AVCodecDescriptor, ptr %121, i32 0, i32 2
  %123 = load ptr, ptr %122, align 8, !tbaa !47
  %124 = call i32 @strcmp(ptr noundef %120, ptr noundef %123) #12
  %125 = icmp ne i32 %124, 0
  br i1 %125, label %126, label %130

126:                                              ; preds = %117
  %127 = load ptr, ptr %12, align 8, !tbaa !24
  %128 = getelementptr inbounds nuw %struct.AVCodecDescriptor, ptr %127, i32 0, i32 0
  %129 = load i32, ptr %128, align 8, !tbaa !26
  call void @print_codecs_for_id(i32 noundef %129, i32 noundef 1)
  br label %131

130:                                              ; preds = %117
  br label %111, !llvm.loop !82

131:                                              ; preds = %126, %111
  %132 = call i32 (ptr, ...) @printf(ptr noundef @.str.14)
  store i32 0, ptr %11, align 4
  br label %133

133:                                              ; preds = %131, %37
  call void @llvm.lifetime.end.p0(i64 8, ptr %14) #11
  call void @llvm.lifetime.end.p0(i64 8, ptr %13) #11
  call void @llvm.lifetime.end.p0(i64 8, ptr %12) #11
  %134 = load i32, ptr %11, align 4
  switch i32 %134, label %143 [
    i32 0, label %135
    i32 4, label %136
  ]

135:                                              ; preds = %133
  br label %136

136:                                              ; preds = %135, %133
  %137 = load i32, ptr %9, align 4, !tbaa !10
  %138 = add i32 %137, 1
  store i32 %138, ptr %9, align 4, !tbaa !10
  br label %22, !llvm.loop !83

139:                                              ; preds = %22
  %140 = load ptr, ptr %8, align 8, !tbaa !71
  call void @av_free(ptr noundef %140)
  store i32 0, ptr %4, align 4
  store i32 1, ptr %11, align 4
  br label %141

141:                                              ; preds = %139, %18
  call void @llvm.lifetime.end.p0(i64 4, ptr %10) #11
  call void @llvm.lifetime.end.p0(i64 4, ptr %9) #11
  call void @llvm.lifetime.end.p0(i64 8, ptr %8) #11
  %142 = load i32, ptr %4, align 4
  ret i32 %142

143:                                              ; preds = %133
  unreachable
}