; Function Attrs: nounwind uwtable
define range(i32 -2147483648, 1) i32 @show_codecs(ptr noundef readnone captures(none) %0, ptr noundef readnone captures(none) %1, ptr noundef readnone captures(none) %2) local_unnamed_addr #2 {
  %4 = alloca ptr, align 8
  %5 = alloca ptr, align 8
  call void @llvm.lifetime.start.p0(i64 8, ptr nonnull %4) #17
  %6 = call fastcc i32 @get_codecs_sorted(ptr noundef %4)
  %7 = icmp slt i32 %6, 0
  br i1 %7, label %72, label %8

8:                                                ; preds = %3
  %puts = tail call i32 @puts(ptr nonnull dereferenceable(1) @str.8)
  %.not53 = icmp eq i32 %6, 0
  %.pre = load ptr, ptr %4, align 8, !tbaa !61
  br i1 %.not53, label %._crit_edge, label %.lr.ph

.lr.ph:                                           ; preds = %8
  %wide.trip.count = zext nneg i32 %6 to i64
  br label %9

9:                                                ; preds = %.lr.ph, %71
  %indvars.iv = phi i64 [ 0, %.lr.ph ], [ %indvars.iv.next, %71 ]
  %10 = getelementptr inbounds nuw ptr, ptr %.pre, i64 %indvars.iv
  %11 = load ptr, ptr %10, align 8, !tbaa !63
  call void @llvm.lifetime.start.p0(i64 8, ptr nonnull %5) #17
  store ptr null, ptr %5, align 8, !tbaa !37
  %12 = getelementptr inbounds nuw i8, ptr %11, i64 8
  %13 = load ptr, ptr %12, align 8, !tbaa !30
  %14 = call ptr @strstr(ptr noundef nonnull dereferenceable(1) %13, ptr noundef nonnull dereferenceable(1) @.str.11) #18
  %.not = icmp eq ptr %14, null
  br i1 %.not, label %15, label %71

15:                                               ; preds = %9
  %16 = load i32, ptr %11, align 8, !tbaa !38
  %17 = call ptr @avcodec_find_decoder(i32 noundef %16) #17
  %.not29 = icmp eq ptr %17, null
  %18 = select i1 %.not29, i32 46, i32 68
  %19 = load i32, ptr %11, align 8, !tbaa !38
  %20 = call ptr @avcodec_find_encoder(i32 noundef %19) #17
  %.not30 = icmp eq ptr %20, null
  %21 = select i1 %.not30, i32 46, i32 69
  %22 = getelementptr inbounds nuw i8, ptr %11, i64 4
  %23 = load i32, ptr %22, align 4, !tbaa !65
  %24 = icmp ult i32 %23, 5
  br i1 %24, label %switch.lookup, label %get_media_type_char.exit

switch.lookup:                                    ; preds = %15
  %25 = zext nneg i32 %23 to i64
  %switch.gep = getelementptr inbounds nuw [5 x i32], ptr @switch.table.print_codecs.21, i64 0, i64 %25
  %switch.load = load i32, ptr %switch.gep, align 4
  br label %get_media_type_char.exit

get_media_type_char.exit:                         ; preds = %15, %switch.lookup
  %.0.i = phi i32 [ %switch.load, %switch.lookup ], [ 63, %15 ]
  %26 = getelementptr inbounds nuw i8, ptr %11, i64 24
  %27 = load i32, ptr %26, align 8, !tbaa !66
  %28 = and i32 %27, 1
  %.not31 = icmp eq i32 %28, 0
  %29 = select i1 %.not31, i32 46, i32 73
  %30 = and i32 %27, 2
  %.not32 = icmp eq i32 %30, 0
  %31 = select i1 %.not32, i32 46, i32 76
  %32 = and i32 %27, 4
  %.not33 = icmp eq i32 %32, 0
  %33 = select i1 %.not33, i32 46, i32 83
  %34 = call i32 (ptr, ...) @printf(ptr noundef nonnull dereferenceable(1) @.str.12, i32 noundef %18, i32 noundef %21, i32 noundef %.0.i, i32 noundef %29, i32 noundef %31, i32 noundef %33)
  %35 = load ptr, ptr %12, align 8, !tbaa !30
  %36 = getelementptr inbounds nuw i8, ptr %11, i64 16
  %37 = load ptr, ptr %36, align 8, !tbaa !67
  %.not34 = icmp eq ptr %37, null
  %spec.select = select i1 %.not34, ptr @.str.2, ptr %37
  %38 = call i32 (ptr, ...) @printf(ptr noundef nonnull dereferenceable(1) @.str.13, ptr noundef %35, ptr noundef nonnull %spec.select)
  br label %39

39:                                               ; preds = %next_codec_for_id.exit, %get_media_type_char.exit
  %40 = load i32, ptr %11, align 8, !tbaa !38
  %41 = call ptr @av_codec_iterate(ptr noundef nonnull %5) #17
  %.not11.i = icmp eq ptr %41, null
  br i1 %.not11.i, label %next_codec_for_id.exit.thread, label %.lr.ph.split.us.i

.lr.ph.split.us.i:                                ; preds = %39, %48
  %42 = phi ptr [ %49, %48 ], [ %41, %39 ]
  %43 = getelementptr inbounds nuw i8, ptr %42, i64 20
  %44 = load i32, ptr %43, align 4, !tbaa !39
  %45 = icmp eq i32 %44, %40
  br i1 %45, label %46, label %48

46:                                               ; preds = %.lr.ph.split.us.i
  %47 = call i32 @av_codec_is_decoder(ptr noundef nonnull %42) #17
  %.not9.us.i = icmp eq i32 %47, 0
  br i1 %.not9.us.i, label %48, label %next_codec_for_id.exit

48:                                               ; preds = %46, %.lr.ph.split.us.i
  %49 = call ptr @av_codec_iterate(ptr noundef nonnull %5) #17
  %.not.us.i = icmp eq ptr %49, null
  br i1 %.not.us.i, label %next_codec_for_id.exit.thread, label %.lr.ph.split.us.i, !llvm.loop !44

next_codec_for_id.exit:                           ; preds = %46
  %50 = load ptr, ptr %42, align 8, !tbaa !68
  %51 = load ptr, ptr %12, align 8, !tbaa !30
  %52 = call i32 @strcmp(ptr noundef nonnull dereferenceable(1) %50, ptr noundef nonnull dereferenceable(1) %51) #18
  %.not36 = icmp eq i32 %52, 0
  br i1 %.not36, label %39, label %53, !llvm.loop !69

53:                                               ; preds = %next_codec_for_id.exit
  %54 = load i32, ptr %11, align 8, !tbaa !38
  call fastcc void @print_codecs_for_id(i32 noundef %54, i32 noundef 0)
  br label %next_codec_for_id.exit.thread

next_codec_for_id.exit.thread:                    ; preds = %39, %48, %53
  store ptr null, ptr %5, align 8, !tbaa !37
  br label %55

55:                                               ; preds = %next_codec_for_id.exit42, %next_codec_for_id.exit.thread
  %56 = load i32, ptr %11, align 8, !tbaa !38
  %57 = call ptr @av_codec_iterate(ptr noundef nonnull %5) #17
  %.not11.i39 = icmp eq ptr %57, null
  br i1 %.not11.i39, label %next_codec_for_id.exit42.thread, label %.lr.ph.split.i

.lr.ph.split.i:                                   ; preds = %55, %64
  %58 = phi ptr [ %65, %64 ], [ %57, %55 ]
  %59 = getelementptr inbounds nuw i8, ptr %58, i64 20
  %60 = load i32, ptr %59, align 4, !tbaa !39
  %61 = icmp eq i32 %60, %56
  br i1 %61, label %62, label %64

62:                                               ; preds = %.lr.ph.split.i
  %63 = call i32 @av_codec_is_encoder(ptr noundef nonnull %58) #17
  %.not10.i = icmp eq i32 %63, 0
  br i1 %.not10.i, label %64, label %next_codec_for_id.exit42

64:                                               ; preds = %62, %.lr.ph.split.i
  %65 = call ptr @av_codec_iterate(ptr noundef nonnull %5) #17
  %.not.i = icmp eq ptr %65, null
  br i1 %.not.i, label %next_codec_for_id.exit42.thread, label %.lr.ph.split.i, !llvm.loop !44

next_codec_for_id.exit42:                         ; preds = %62
  %66 = load ptr, ptr %58, align 8, !tbaa !68
  %67 = load ptr, ptr %12, align 8, !tbaa !30
  %68 = call i32 @strcmp(ptr noundef nonnull dereferenceable(1) %66, ptr noundef nonnull dereferenceable(1) %67) #18
  %.not38 = icmp eq i32 %68, 0
  br i1 %.not38, label %55, label %69, !llvm.loop !70

69:                                               ; preds = %next_codec_for_id.exit42
  %70 = load i32, ptr %11, align 8, !tbaa !38
  call fastcc void @print_codecs_for_id(i32 noundef %70, i32 noundef 1)
  br label %next_codec_for_id.exit42.thread

next_codec_for_id.exit42.thread:                  ; preds = %55, %64, %69
  %putchar = call i32 @putchar(i32 10)
  br label %71

71:                                               ; preds = %9, %next_codec_for_id.exit42.thread
  call void @llvm.lifetime.end.p0(i64 8, ptr nonnull %5) #17
  %indvars.iv.next = add nuw nsw i64 %indvars.iv, 1
  %exitcond.not = icmp eq i64 %indvars.iv.next, %wide.trip.count
  br i1 %exitcond.not, label %._crit_edge, label %9, !llvm.loop !71

._crit_edge:                                      ; preds = %71, %8
  call void @av_free(ptr noundef %.pre) #17
  br label %72

72:                                               ; preds = %3, %._crit_edge
  %.0 = phi i32 [ 0, %._crit_edge ], [ %6, %3 ]
  call void @llvm.lifetime.end.p0(i64 8, ptr nonnull %4) #17
  ret i32 %.0
}